; Function Attrs: nounwind uwtable
define dso_local range(i64 -2147483648, 2147483648) i64 @bpcharlen(ptr noundef readonly captures(none) %0) local_unnamed_addr #0 {
  %2 = getelementptr inbounds nuw i8, ptr %0, i64 32
  %3 = load i64, ptr %2, align 8
  %4 = inttoptr i64 %3 to ptr
  %5 = tail call ptr @pg_detoast_datum_packed(ptr noundef %4) #13
  %6 = load i8, ptr %5, align 1
  %7 = zext i8 %6 to i32
  %8 = and i32 %7, 1
  %.not.i = icmp eq i32 %8, 0
  %9 = getelementptr inbounds nuw i8, ptr %5, i64 1
  %10 = icmp eq i8 %6, 1
  br i1 %10, label %11, label %19

11:                                               ; preds = %1
  %12 = load i8, ptr %9, align 1
  %13 = icmp eq i8 %12, 1
  %14 = and i8 %12, -2
  %15 = icmp eq i8 %14, 2
  %or.cond.i = or i1 %13, %15
  %16 = icmp eq i8 %12, 18
  %17 = select i1 %16, i32 16, i32 0
  %18 = select i1 %or.cond.i, i32 8, i32 %17
  br label %27

19:                                               ; preds = %1
  br i1 %.not.i, label %23, label %20

20:                                               ; preds = %19
  %21 = lshr i32 %7, 1
  %22 = add nsw i32 %21, -1
  br label %27

23:                                               ; preds = %19
  %24 = load i32, ptr %5, align 4
  %25 = lshr i32 %24, 2
  %26 = add nsw i32 %25, -4
  br label %27

27:                                               ; preds = %23, %20, %11
  %28 = phi i32 [ %18, %11 ], [ %22, %20 ], [ %26, %23 ]
  %29 = getelementptr inbounds nuw i8, ptr %5, i64 4
  %30 = select i1 %.not.i, ptr %29, ptr %9
  %31 = zext i32 %28 to i64
  %32 = tail call i32 @llvm.smin.i32(i32 %28, i32 0)
  br label %33

33:                                               ; preds = %36, %27
  %indvars.iv.i.i = phi i64 [ %indvars.iv.next.i.i, %36 ], [ %31, %27 ]
  %indvars.iv.next.i.i = add nsw i64 %indvars.iv.i.i, -1
  %34 = and i64 %indvars.iv.next.i.i, 2147483648
  %35 = icmp eq i64 %34, 0
  br i1 %35, label %36, label %bcTruelen.exit

36:                                               ; preds = %33
  %37 = and i64 %indvars.iv.next.i.i, 2147483647
  %38 = getelementptr inbounds nuw i8, ptr %30, i64 %37
  %39 = load i8, ptr %38, align 1
  %.not.i.i = icmp eq i8 %39, 32
  br i1 %.not.i.i, label %33, label %.split.loop.exit.i.i, !llvm.loop !12

.split.loop.exit.i.i:                             ; preds = %36
  %40 = trunc nuw i64 %indvars.iv.i.i to i32
  br label %bcTruelen.exit

bcTruelen.exit:                                   ; preds = %33, %.split.loop.exit.i.i
  %.0.in.lcssa.i.i = phi i32 [ %40, %.split.loop.exit.i.i ], [ %32, %33 ]
  %41 = tail call i32 @pg_database_encoding_max_length() #13
  %.not = icmp eq i32 %41, 1
  br i1 %.not, label %47, label %42

42:                                               ; preds = %bcTruelen.exit
  %43 = load i8, ptr %5, align 1
  %44 = and i8 %43, 1
  %.not6 = icmp eq i8 %44, 0
  %.v = select i1 %.not6, i64 4, i64 1
  %45 = getelementptr inbounds nuw i8, ptr %5, i64 %.v
  %46 = tail call i32 @pg_mbstrlen_with_len(ptr noundef nonnull %45, i32 noundef %.0.in.lcssa.i.i) #13
  br label %47

47:                                               ; preds = %42, %bcTruelen.exit
  %.0 = phi i32 [ %46, %42 ], [ %.0.in.lcssa.i.i, %bcTruelen.exit ]
  %48 = sext i32 %.0 to i64
  ret i64 %48
}